; Function Attrs: mustprogress uwtable
define noundef i32 @_ZN3zmq13zmtp_engine_t20produce_pong_messageEPNS_5msg_tE(ptr noundef nonnull align 8 dereferenceable(1976) %this, ptr noundef %msg_) unnamed_addr #0 align 2 {
entry:
  %_mechanism = getelementptr inbounds i8, ptr %this, i64 1408
  %0 = load ptr, ptr %_mechanism, align 8
  %cmp.not = icmp eq ptr %0, null
  br i1 %cmp.not, label %if.then, label %do.end

if.then:                                          ; preds = %entry
  %1 = load ptr, ptr @stderr, align 8
  %call = tail call i32 (ptr, ptr, ...) @fprintf(ptr noundef %1, ptr noundef nonnull @.str.2, ptr noundef nonnull @.str.15, ptr noundef nonnull @.str.1, i32 noundef 474) #18
  %2 = load ptr, ptr @stderr, align 8
  %call2 = tail call i32 @fflush(ptr noundef %2)
  tail call void @_ZN3zmq9zmq_abortEPKc(ptr noundef nonnull @.str.15)
  br label %do.end

do.end:                                           ; preds = %entry, %if.then
  %_pong_msg = getelementptr inbounds i8, ptr %this, i64 1760
  %call3 = tail call noundef i32 @_ZN3zmq5msg_t4moveERS0_(ptr noundef nonnull align 8 dereferenceable(64) %msg_, ptr noundef nonnull align 8 dereferenceable(64) %_pong_msg)
  %cmp5.not = icmp eq i32 %call3, 0
  br i1 %cmp5.not, label %do.end13, label %if.then7

if.then7:                                         ; preds = %do.end
  %call8 = tail call ptr @__errno_location() #16
  %3 = load i32, ptr %call8, align 4
  %call9 = tail call ptr @strerror(i32 noundef %3) #17
  %4 = load ptr, ptr @stderr, align 8
  %call10 = tail call i32 (ptr, ptr, ...) @fprintf(ptr noundef %4, ptr noundef nonnull @.str, ptr noundef %call9, ptr noundef nonnull @.str.1, i32 noundef 477) #18
  %5 = load ptr, ptr @stderr, align 8
  %call11 = tail call i32 @fflush(ptr noundef %5)
  tail call void @_ZN3zmq9zmq_abortEPKc(ptr noundef %call9)
  br label %do.end13

do.end13:                                         ; preds = %do.end, %if.then7
  %6 = load ptr, ptr %_mechanism, align 8
  %vtable = load ptr, ptr %6, align 8
  %vfn = getelementptr inbounds i8, ptr %vtable, i64 32
  %7 = load ptr, ptr %vfn, align 8
  %call15 = tail call noundef i32 %7(ptr noundef nonnull align 8 dereferenceable(1488) %6, ptr noundef nonnull %msg_)
  %_next_msg = getelementptr inbounds i8, ptr %this, i64 1416
  store i64 ptrtoint (ptr @_ZN3zmq20stream_engine_base_t15pull_and_encodeEPNS_5msg_tE to i64), ptr %_next_msg, align 8
  %_next_msg.repack4 = getelementptr inbounds i8, ptr %this, i64 1424
  store i64 0, ptr %_next_msg.repack4, align 8
  ret i32 %call15
}